; Function Attrs: mustprogress nofree norecurse nosync nounwind willreturn memory(argmem: write) uwtable
define void @_ZN5arrow7compute12RowTableImplC2Ev(ptr noundef nonnull writeonly align 8 captures(none) dereferenceable(209) initializes((0, 8), (32, 152), (184, 200)) %this) unnamed_addr #3 align 2 personality ptr @__gxx_personality_v0 {
entry:
  store ptr null, ptr %this, align 8
  %column_metadatas.i = getelementptr inbounds nuw i8, ptr %this, i64 32
  %rows_capacity_ = getelementptr inbounds nuw i8, ptr %this, i64 184
  tail call void @llvm.memset.p0.i64(ptr noundef nonnull align 8 dereferenceable(120) %column_metadatas.i, i8 0, i64 120, i1 false)
  tail call void @llvm.memset.p0.i64(ptr noundef nonnull align 8 dereferenceable(16) %rows_capacity_, i8 0, i64 16, i1 false)
  ret void
}